target datalayout = "e-m:e-p270:32:32-p271:32:32-p272:64:64-i64:64-i128:128-f80:128-n8:16:32:64-S128"
target triple = "x86_64-pc-linux-gnu"

%struct.AVFilterContext = type { ptr, ptr, ptr, ptr, ptr, i32, ptr, ptr, i32, ptr, ptr, i32, i32, ptr, ptr, ptr, ptr, i32, ptr, i32, i32 }
%struct.AudioNEqualizerContext = type { ptr, ptr, ptr, i32, i32, i32, double, i32, i32, i32, ptr, ptr }
%struct.AVChannelLayout = type { i32, i32, %union.anon.1, ptr }
%union.anon.1 = type { i64 }
%struct.AVRational = type { i32, i32 }
%struct.EqualizatorFilter = type { i32, i32, i32, double, double, double, [2 x %struct.FoSection] }
%struct.FoSection = type { double, double, double, double, double, double, double, double, double, double, [4 x double], [4 x double] }
%struct.AVFrame = type { [8 x ptr], [8 x i32], ptr, i32, i32, i32, i32, i32, %struct.AVRational, i64, i64, %struct.AVRational, i32, ptr, i32, i32, [8 x ptr], ptr, i32, ptr, i32, i32, i32, i32, i32, i32, i32, i64, ptr, i32, ptr, ptr, i64, i64, i64, i64, ptr, %struct.AVChannelLayout, i64 }

; Function Attrs: inlinehint nounwind uwtable
define internal double @section_process(ptr noundef %0, double noundef %1) #6 {
  %3 = alloca ptr, align 8
  %4 = alloca double, align 8
  %5 = alloca double, align 8
  store ptr %0, ptr %3, align 8, !tbaa !89
  store double %1, ptr %4, align 8, !tbaa !48
  call void @llvm.lifetime.start.p0(i64 8, ptr %5) #13
  %6 = load ptr, ptr %3, align 8, !tbaa !89
  %7 = getelementptr inbounds nuw %struct.FoSection, ptr %6, i32 0, i32 5
  %8 = load double, ptr %7, align 8, !tbaa !92
  %9 = load double, ptr %4, align 8, !tbaa !48
  %10 = fmul nsz double %8, %9
  store double %10, ptr %5, align 8, !tbaa !48
  %11 = load ptr, ptr %3, align 8, !tbaa !89
  %12 = getelementptr inbounds nuw %struct.FoSection, ptr %11, i32 0, i32 6
  %13 = load double, ptr %12, align 8, !tbaa !94
  %14 = load ptr, ptr %3, align 8, !tbaa !89
  %15 = getelementptr inbounds nuw %struct.FoSection, ptr %14, i32 0, i32 10
  %16 = getelementptr inbounds [4 x double], ptr %15, i64 0, i64 0
  %17 = load double, ptr %16, align 8, !tbaa !48
  %18 = load ptr, ptr %3, align 8, !tbaa !89
  %19 = getelementptr inbounds nuw %struct.FoSection, ptr %18, i32 0, i32 11
  %20 = getelementptr inbounds [4 x double], ptr %19, i64 0, i64 0
  %21 = load double, ptr %20, align 8, !tbaa !48
  %22 = load ptr, ptr %3, align 8, !tbaa !89
  %23 = getelementptr inbounds nuw %struct.FoSection, ptr %22, i32 0, i32 1
  %24 = load double, ptr %23, align 8, !tbaa !95
  %25 = fmul nsz double %21, %24
  %26 = fneg nsz double %25
  %27 = call nsz double @llvm.fmuladd.f64(double %13, double %17, double %26)
  %28 = load double, ptr %5, align 8, !tbaa !48
  %29 = fadd nsz double %28, %27
  store double %29, ptr %5, align 8, !tbaa !48
  %30 = load ptr, ptr %3, align 8, !tbaa !89
  %31 = getelementptr inbounds nuw %struct.FoSection, ptr %30, i32 0, i32 7
  %32 = load double, ptr %31, align 8, !tbaa !96
  %33 = load ptr, ptr %3, align 8, !tbaa !89
  %34 = getelementptr inbounds nuw %struct.FoSection, ptr %33, i32 0, i32 10
  %35 = getelementptr inbounds [4 x double], ptr %34, i64 0, i64 1
  %36 = load double, ptr %35, align 8, !tbaa !48
  %37 = load ptr, ptr %3, align 8, !tbaa !89
  %38 = getelementptr inbounds nuw %struct.FoSection, ptr %37, i32 0, i32 11
  %39 = getelementptr inbounds [4 x double], ptr %38, i64 0, i64 1
  %40 = load double, ptr %39, align 8, !tbaa !48
  %41 = load ptr, ptr %3, align 8, !tbaa !89
  %42 = getelementptr inbounds nuw %struct.FoSection, ptr %41, i32 0, i32 2
  %43 = load double, ptr %42, align 8, !tbaa !97
  %44 = fmul nsz double %40, %43
  %45 = fneg nsz double %44
  %46 = call nsz double @llvm.fmuladd.f64(double %32, double %36, double %45)
  %47 = load double, ptr %5, align 8, !tbaa !48
  %48 = fadd nsz double %47, %46
  store double %48, ptr %5, align 8, !tbaa !48
  %49 = load ptr, ptr %3, align 8, !tbaa !89
  %50 = getelementptr inbounds nuw %struct.FoSection, ptr %49, i32 0, i32 8
  %51 = load double, ptr %50, align 8, !tbaa !98
  %52 = load ptr, ptr %3, align 8, !tbaa !89
  %53 = getelementptr inbounds nuw %struct.FoSection, ptr %52, i32 0, i32 10
  %54 = getelementptr inbounds [4 x double], ptr %53, i64 0, i64 2
  %55 = load double, ptr %54, align 8, !tbaa !48
  %56 = load ptr, ptr %3, align 8, !tbaa !89
  %57 = getelementptr inbounds nuw %struct.FoSection, ptr %56, i32 0, i32 11
  %58 = getelementptr inbounds [4 x double], ptr %57, i64 0, i64 2
  %59 = load double, ptr %58, align 8, !tbaa !48
  %60 = load ptr, ptr %3, align 8, !tbaa !89
  %61 = getelementptr inbounds nuw %struct.FoSection, ptr %60, i32 0, i32 3
  %62 = load double, ptr %61, align 8, !tbaa !99
  %63 = fmul nsz double %59, %62
  %64 = fneg nsz double %63
  %65 = call nsz double @llvm.fmuladd.f64(double %51, double %55, double %64)
  %66 = load double, ptr %5, align 8, !tbaa !48
  %67 = fadd nsz double %66, %65
  store double %67, ptr %5, align 8, !tbaa !48
  %68 = load ptr, ptr %3, align 8, !tbaa !89
  %69 = getelementptr inbounds nuw %struct.FoSection, ptr %68, i32 0, i32 9
  %70 = load double, ptr %69, align 8, !tbaa !100
  %71 = load ptr, ptr %3, align 8, !tbaa !89
  %72 = getelementptr inbounds nuw %struct.FoSection, ptr %71, i32 0, i32 10
  %73 = getelementptr inbounds [4 x double], ptr %72, i64 0, i64 3
  %74 = load double, ptr %73, align 8, !tbaa !48
  %75 = load ptr, ptr %3, align 8, !tbaa !89
  %76 = getelementptr inbounds nuw %struct.FoSection, ptr %75, i32 0, i32 11
  %77 = getelementptr inbounds [4 x double], ptr %76, i64 0, i64 3
  %78 = load double, ptr %77, align 8, !tbaa !48
  %79 = load ptr, ptr %3, align 8, !tbaa !89
  %80 = getelementptr inbounds nuw %struct.FoSection, ptr %79, i32 0, i32 4
  %81 = load double, ptr %80, align 8, !tbaa !101
  %82 = fmul nsz double %78, %81
  %83 = fneg nsz double %82
  %84 = call nsz double @llvm.fmuladd.f64(double %70, double %74, double %83)
  %85 = load double, ptr %5, align 8, !tbaa !48
  %86 = fadd nsz double %85, %84
  store double %86, ptr %5, align 8, !tbaa !48
  %87 = load ptr, ptr %3, align 8, !tbaa !89
  %88 = getelementptr inbounds nuw %struct.FoSection, ptr %87, i32 0, i32 10
  %89 = getelementptr inbounds [4 x double], ptr %88, i64 0, i64 2
  %90 = load double, ptr %89, align 8, !tbaa !48
  %91 = load ptr, ptr %3, align 8, !tbaa !89
  %92 = getelementptr inbounds nuw %struct.FoSection, ptr %91, i32 0, i32 10
  %93 = getelementptr inbounds [4 x double], ptr %92, i64 0, i64 3
  store double %90, ptr %93, align 8, !tbaa !48
  %94 = load ptr, ptr %3, align 8, !tbaa !89
  %95 = getelementptr inbounds nuw %struct.FoSection, ptr %94, i32 0, i32 10
  %96 = getelementptr inbounds [4 x double], ptr %95, i64 0, i64 1
  %97 = load double, ptr %96, align 8, !tbaa !48
  %98 = load ptr, ptr %3, align 8, !tbaa !89
  %99 = getelementptr inbounds nuw %struct.FoSection, ptr %98, i32 0, i32 10
  %100 = getelementptr inbounds [4 x double], ptr %99, i64 0, i64 2
  store double %97, ptr %100, align 8, !tbaa !48
  %101 = load ptr, ptr %3, align 8, !tbaa !89
  %102 = getelementptr inbounds nuw %struct.FoSection, ptr %101, i32 0, i32 10
  %103 = getelementptr inbounds [4 x double], ptr %102, i64 0, i64 0
  %104 = load double, ptr %103, align 8, !tbaa !48
  %105 = load ptr, ptr %3, align 8, !tbaa !89
  %106 = getelementptr inbounds nuw %struct.FoSection, ptr %105, i32 0, i32 10
  %107 = getelementptr inbounds [4 x double], ptr %106, i64 0, i64 1
  store double %104, ptr %107, align 8, !tbaa !48
  %108 = load double, ptr %4, align 8, !tbaa !48
  %109 = load ptr, ptr %3, align 8, !tbaa !89
  %110 = getelementptr inbounds nuw %struct.FoSection, ptr %109, i32 0, i32 10
  %111 = getelementptr inbounds [4 x double], ptr %110, i64 0, i64 0
  store double %108, ptr %111, align 8, !tbaa !48
  %112 = load ptr, ptr %3, align 8, !tbaa !89
  %113 = getelementptr inbounds nuw %struct.FoSection, ptr %112, i32 0, i32 11
  %114 = getelementptr inbounds [4 x double], ptr %113, i64 0, i64 2
  %115 = load double, ptr %114, align 8, !tbaa !48
  %116 = load ptr, ptr %3, align 8, !tbaa !89
  %117 = getelementptr inbounds nuw %struct.FoSection, ptr %116, i32 0, i32 11
  %118 = getelementptr inbounds [4 x double], ptr %117, i64 0, i64 3
  store double %115, ptr %118, align 8, !tbaa !48
  %119 = load ptr, ptr %3, align 8, !tbaa !89
  %120 = getelementptr inbounds nuw %struct.FoSection, ptr %119, i32 0, i32 11
  %121 = getelementptr inbounds [4 x double], ptr %120, i64 0, i64 1
  %122 = load double, ptr %121, align 8, !tbaa !48
  %123 = load ptr, ptr %3, align 8, !tbaa !89
  %124 = getelementptr inbounds nuw %struct.FoSection, ptr %123, i32 0, i32 11
  %125 = getelementptr inbounds [4 x double], ptr %124, i64 0, i64 2
  store double %122, ptr %125, align 8, !tbaa !48
  %126 = load ptr, ptr %3, align 8, !tbaa !89
  %127 = getelementptr inbounds nuw %struct.FoSection, ptr %126, i32 0, i32 11
  %128 = getelementptr inbounds [4 x double], ptr %127, i64 0, i64 0
  %129 = load double, ptr %128, align 8, !tbaa !48
  %130 = load ptr, ptr %3, align 8, !tbaa !89
  %131 = getelementptr inbounds nuw %struct.FoSection, ptr %130, i32 0, i32 11
  %132 = getelementptr inbounds [4 x double], ptr %131, i64 0, i64 1
  store double %129, ptr %132, align 8, !tbaa !48
  %133 = load double, ptr %5, align 8, !tbaa !48
  %134 = load ptr, ptr %3, align 8, !tbaa !89
  %135 = getelementptr inbounds nuw %struct.FoSection, ptr %134, i32 0, i32 11
  %136 = getelementptr inbounds [4 x double], ptr %135, i64 0, i64 0
  store double %133, ptr %136, align 8, !tbaa !48
  %137 = load double, ptr %5, align 8, !tbaa !48
  call void @llvm.lifetime.end.p0(i64 8, ptr %5) #13
  ret double %137
}

; Function Attrs: nounwind uwtable
define internal double @process_sample(ptr noundef %0, double noundef %1) #1 {
  %3 = alloca ptr, align 8
  %4 = alloca double, align 8
  %5 = alloca double, align 8
  %6 = alloca double, align 8
  %7 = alloca i32, align 4
  store ptr %0, ptr %3, align 8, !tbaa !89
  store double %1, ptr %4, align 8, !tbaa !48
  call void @llvm.lifetime.start.p0(i64 8, ptr %5) #13
  %8 = load double, ptr %4, align 8, !tbaa !48
  store double %8, ptr %5, align 8, !tbaa !48
  call void @llvm.lifetime.start.p0(i64 8, ptr %6) #13
  call void @llvm.lifetime.start.p0(i64 4, ptr %7) #13
  store i32 0, ptr %7, align 4, !tbaa !29
  br label %9

9:                                                ; preds = %20, %2
  %10 = load i32, ptr %7, align 4, !tbaa !29
  %11 = icmp slt i32 %10, 2
  br i1 %11, label %12, label %23

12:                                               ; preds = %9
  %13 = load ptr, ptr %3, align 8, !tbaa !89
  %14 = load i32, ptr %7, align 4, !tbaa !29
  %15 = sext i32 %14 to i64
  %16 = getelementptr inbounds %struct.FoSection, ptr %13, i64 %15
  %17 = load double, ptr %5, align 8, !tbaa !48
  %18 = call nsz double @section_process(ptr noundef %16, double noundef %17)
  store double %18, ptr %6, align 8, !tbaa !48
  %19 = load double, ptr %6, align 8, !tbaa !48
  store double %19, ptr %5, align 8, !tbaa !48
  br label %20

20:                                               ; preds = %12
  %21 = load i32, ptr %7, align 4, !tbaa !29
  %22 = add nsw i32 %21, 1
  store i32 %22, ptr %7, align 4, !tbaa !29
  br label %9, !llvm.loop !91

23:                                               ; preds = %9
  %24 = load double, ptr %6, align 8, !tbaa !48
  call void @llvm.lifetime.end.p0(i64 4, ptr %7) #13
  call void @llvm.lifetime.end.p0(i64 8, ptr %6) #13
  call void @llvm.lifetime.end.p0(i64 8, ptr %5) #13
  ret double %24
}

; Function Attrs: nounwind uwtable
define internal i32 @filter_channels(ptr noundef %0, ptr noundef %1, i32 noundef %2, i32 noundef %3) #1 {
  %5 = alloca ptr, align 8
  %6 = alloca ptr, align 8
  %7 = alloca i32, align 4
  %8 = alloca i32, align 4
  %9 = alloca ptr, align 8
  %10 = alloca ptr, align 8
  %11 = alloca i32, align 4
  %12 = alloca i32, align 4
  %13 = alloca i32, align 4
  %14 = alloca i32, align 4
  %15 = alloca ptr, align 8
  %16 = alloca ptr, align 8
  %17 = alloca i32, align 4
  %18 = alloca double, align 8
  store ptr %0, ptr %5, align 8, !tbaa !4
  store ptr %1, ptr %6, align 8, !tbaa !31
  store i32 %2, ptr %7, align 4, !tbaa !29
  store i32 %3, ptr %8, align 4, !tbaa !29
  call void @llvm.lifetime.start.p0(i64 8, ptr %9) #13
  %19 = load ptr, ptr %5, align 8, !tbaa !4
  %20 = getelementptr inbounds nuw %struct.AVFilterContext, ptr %19, i32 0, i32 9
  %21 = load ptr, ptr %20, align 8, !tbaa !9
  store ptr %21, ptr %9, align 8, !tbaa !22
  call void @llvm.lifetime.start.p0(i64 8, ptr %10) #13
  %22 = load ptr, ptr %6, align 8, !tbaa !31
  store ptr %22, ptr %10, align 8, !tbaa !63
  call void @llvm.lifetime.start.p0(i64 4, ptr %11) #13
  %23 = load ptr, ptr %10, align 8, !tbaa !63
  %24 = getelementptr inbounds nuw %struct.AVFrame, ptr %23, i32 0, i32 37
  %25 = getelementptr inbounds nuw %struct.AVChannelLayout, ptr %24, i32 0, i32 1
  %26 = load i32, ptr %25, align 4, !tbaa !82
  %27 = load i32, ptr %7, align 4, !tbaa !29
  %28 = mul nsw i32 %26, %27
  %29 = load i32, ptr %8, align 4, !tbaa !29
  %30 = sdiv i32 %28, %29
  store i32 %30, ptr %11, align 4, !tbaa !29
  call void @llvm.lifetime.start.p0(i64 4, ptr %12) #13
  %31 = load ptr, ptr %10, align 8, !tbaa !63
  %32 = getelementptr inbounds nuw %struct.AVFrame, ptr %31, i32 0, i32 37
  %33 = getelementptr inbounds nuw %struct.AVChannelLayout, ptr %32, i32 0, i32 1
  %34 = load i32, ptr %33, align 4, !tbaa !82
  %35 = load i32, ptr %7, align 4, !tbaa !29
  %36 = add nsw i32 %35, 1
  %37 = mul nsw i32 %34, %36
  %38 = load i32, ptr %8, align 4, !tbaa !29
  %39 = sdiv i32 %37, %38
  store i32 %39, ptr %12, align 4, !tbaa !29
  call void @llvm.lifetime.start.p0(i64 4, ptr %13) #13
  store i32 0, ptr %13, align 4, !tbaa !29
  br label %40

40:                                               ; preds = %117, %4
  %41 = load i32, ptr %13, align 4, !tbaa !29
  %42 = load ptr, ptr %9, align 8, !tbaa !22
  %43 = getelementptr inbounds nuw %struct.AudioNEqualizerContext, ptr %42, i32 0, i32 8
  %44 = load i32, ptr %43, align 4, !tbaa !41
  %45 = icmp slt i32 %41, %44
  br i1 %45, label %47, label %46

46:                                               ; preds = %40
  store i32 2, ptr %14, align 4
  call void @llvm.lifetime.end.p0(i64 4, ptr %13) #13
  br label %120

47:                                               ; preds = %40
  call void @llvm.lifetime.start.p0(i64 8, ptr %15) #13
  %48 = load ptr, ptr %9, align 8, !tbaa !22
  %49 = getelementptr inbounds nuw %struct.AudioNEqualizerContext, ptr %48, i32 0, i32 10
  %50 = load ptr, ptr %49, align 8, !tbaa !57
  %51 = load i32, ptr %13, align 4, !tbaa !29
  %52 = sext i32 %51 to i64
  %53 = getelementptr inbounds %struct.EqualizatorFilter, ptr %50, i64 %52
  store ptr %53, ptr %15, align 8, !tbaa !83
  call void @llvm.lifetime.start.p0(i64 8, ptr %16) #13
  %54 = load ptr, ptr %15, align 8, !tbaa !83
  %55 = getelementptr inbounds nuw %struct.EqualizatorFilter, ptr %54, i32 0, i32 4
  %56 = load double, ptr %55, align 8, !tbaa !61
  %57 = fcmp nsz oeq double %56, 0.000000e+00
  br i1 %57, label %63, label %58

58:                                               ; preds = %47
  %59 = load ptr, ptr %15, align 8, !tbaa !83
  %60 = getelementptr inbounds nuw %struct.EqualizatorFilter, ptr %59, i32 0, i32 0
  %61 = load i32, ptr %60, align 8, !tbaa !80
  %62 = icmp ne i32 %61, 0
  br i1 %62, label %63, label %64

63:                                               ; preds = %58, %47
  store i32 4, ptr %14, align 4
  br label %114

64:                                               ; preds = %58
  %65 = load ptr, ptr %15, align 8, !tbaa !83
  %66 = getelementptr inbounds nuw %struct.EqualizatorFilter, ptr %65, i32 0, i32 1
  %67 = load i32, ptr %66, align 4, !tbaa !81
  %68 = load i32, ptr %11, align 4, !tbaa !29
  %69 = icmp slt i32 %67, %68
  br i1 %69, label %76, label %70

70:                                               ; preds = %64
  %71 = load ptr, ptr %15, align 8, !tbaa !83
  %72 = getelementptr inbounds nuw %struct.EqualizatorFilter, ptr %71, i32 0, i32 1
  %73 = load i32, ptr %72, align 4, !tbaa !81
  %74 = load i32, ptr %12, align 4, !tbaa !29
  %75 = icmp sge i32 %73, %74
  br i1 %75, label %76, label %77

76:                                               ; preds = %70, %64
  store i32 4, ptr %14, align 4
  br label %114

77:                                               ; preds = %70
  %78 = load ptr, ptr %10, align 8, !tbaa !63
  %79 = getelementptr inbounds nuw %struct.AVFrame, ptr %78, i32 0, i32 2
  %80 = load ptr, ptr %79, align 8, !tbaa !84
  %81 = load ptr, ptr %15, align 8, !tbaa !83
  %82 = getelementptr inbounds nuw %struct.EqualizatorFilter, ptr %81, i32 0, i32 1
  %83 = load i32, ptr %82, align 4, !tbaa !81
  %84 = sext i32 %83 to i64
  %85 = getelementptr inbounds ptr, ptr %80, i64 %84
  %86 = load ptr, ptr %85, align 8, !tbaa !28
  store ptr %86, ptr %16, align 8, !tbaa !85
  call void @llvm.lifetime.start.p0(i64 4, ptr %17) #13
  store i32 0, ptr %17, align 4, !tbaa !29
  br label %87

87:                                               ; preds = %110, %77
  %88 = load i32, ptr %17, align 4, !tbaa !29
  %89 = load ptr, ptr %10, align 8, !tbaa !63
  %90 = getelementptr inbounds nuw %struct.AVFrame, ptr %89, i32 0, i32 5
  %91 = load i32, ptr %90, align 8, !tbaa !74
  %92 = icmp slt i32 %88, %91
  br i1 %92, label %94, label %93

93:                                               ; preds = %87
  store i32 5, ptr %14, align 4
  call void @llvm.lifetime.end.p0(i64 4, ptr %17) #13
  br label %113

94:                                               ; preds = %87
  call void @llvm.lifetime.start.p0(i64 8, ptr %18) #13
  %95 = load ptr, ptr %16, align 8, !tbaa !85
  %96 = load i32, ptr %17, align 4, !tbaa !29
  %97 = sext i32 %96 to i64
  %98 = getelementptr inbounds double, ptr %95, i64 %97
  %99 = load double, ptr %98, align 8, !tbaa !48
  store double %99, ptr %18, align 8, !tbaa !48
  %100 = load ptr, ptr %15, align 8, !tbaa !83
  %101 = getelementptr inbounds nuw %struct.EqualizatorFilter, ptr %100, i32 0, i32 6
  %102 = getelementptr inbounds [2 x %struct.FoSection], ptr %101, i64 0, i64 0
  %103 = load double, ptr %18, align 8, !tbaa !48
  %104 = call nsz double @process_sample(ptr noundef %102, double noundef %103)
  store double %104, ptr %18, align 8, !tbaa !48
  %105 = load double, ptr %18, align 8, !tbaa !48
  %106 = load ptr, ptr %16, align 8, !tbaa !85
  %107 = load i32, ptr %17, align 4, !tbaa !29
  %108 = sext i32 %107 to i64
  %109 = getelementptr inbounds double, ptr %106, i64 %108
  store double %105, ptr %109, align 8, !tbaa !48
  call void @llvm.lifetime.end.p0(i64 8, ptr %18) #13
  br label %110

110:                                              ; preds = %94
  %111 = load i32, ptr %17, align 4, !tbaa !29
  %112 = add nsw i32 %111, 1
  store i32 %112, ptr %17, align 4, !tbaa !29
  br label %87, !llvm.loop !86

113:                                              ; preds = %93
  store i32 0, ptr %14, align 4
  br label %114

114:                                              ; preds = %113, %76, %63
  call void @llvm.lifetime.end.p0(i64 8, ptr %16) #13
  call void @llvm.lifetime.end.p0(i64 8, ptr %15) #13
  %115 = load i32, ptr %14, align 4
  switch i32 %115, label %121 [
    i32 0, label %116
    i32 4, label %117
  ]

116:                                              ; preds = %114
  br label %117

117:                                              ; preds = %116, %114
  %118 = load i32, ptr %13, align 4, !tbaa !29
  %119 = add nsw i32 %118, 1
  store i32 %119, ptr %13, align 4, !tbaa !29
  br label %40, !llvm.loop !88

120:                                              ; preds = %46
  store i32 1, ptr %14, align 4
  call void @llvm.lifetime.end.p0(i64 4, ptr %12) #13
  call void @llvm.lifetime.end.p0(i64 4, ptr %11) #13
  call void @llvm.lifetime.end.p0(i64 8, ptr %10) #13
  call void @llvm.lifetime.end.p0(i64 8, ptr %9) #13
  ret i32 0

121:                                              ; preds = %114
  unreachable
}