; Function Attrs: nofree norecurse nosync nounwind memory(readwrite, inaccessiblemem: none) uwtable
define internal noundef i32 @filter_channels(ptr noundef readonly captures(none) %0, ptr noundef readonly captures(none) %1, i32 noundef %2, i32 noundef %3) #4 {
  %5 = getelementptr inbounds nuw i8, ptr %0, i64 72
  %6 = load ptr, ptr %5, align 8, !tbaa !4
  %7 = getelementptr inbounds nuw i8, ptr %1, i64 388
  %8 = load i32, ptr %7, align 4, !tbaa !64
  %9 = mul nsw i32 %8, %2
  %10 = sdiv i32 %9, %3
  %11 = add nsw i32 %2, 1
  %12 = mul nsw i32 %8, %11
  %13 = sdiv i32 %12, %3
  %14 = getelementptr inbounds nuw i8, ptr %6, i64 52
  %15 = load i32, ptr %14, align 4, !tbaa !28
  %16 = icmp sgt i32 %15, 0
  br i1 %16, label %.lr.ph35, label %._crit_edge

.lr.ph35:                                         ; preds = %4
  %17 = getelementptr inbounds nuw i8, ptr %6, i64 64
  %18 = load ptr, ptr %17, align 8, !tbaa !43
  %19 = getelementptr inbounds nuw i8, ptr %1, i64 96
  %20 = getelementptr inbounds nuw i8, ptr %1, i64 112
  %wide.trip.count40 = zext nneg i32 %15 to i64
  br label %21

._crit_edge:                                      ; preds = %.loopexit, %4
  ret i32 0

21:                                               ; preds = %.lr.ph35, %.loopexit
  %indvars.iv37 = phi i64 [ 0, %.lr.ph35 ], [ %indvars.iv.next38, %.loopexit ]
  %22 = getelementptr inbounds nuw %struct.EqualizatorFilter, ptr %18, i64 %indvars.iv37
  %23 = getelementptr inbounds nuw i8, ptr %22, i64 24
  %24 = load double, ptr %23, align 8, !tbaa !47
  %25 = fcmp nsz oeq double %24, 0.000000e+00
  br i1 %25, label %.loopexit, label %26

26:                                               ; preds = %21
  %27 = load i32, ptr %22, align 8, !tbaa !62
  %.not = icmp eq i32 %27, 0
  br i1 %.not, label %28, label %.loopexit

28:                                               ; preds = %26
  %29 = getelementptr inbounds nuw i8, ptr %22, i64 4
  %30 = load i32, ptr %29, align 4, !tbaa !63
  %31 = icmp sge i32 %30, %10
  %.not32 = icmp slt i32 %30, %13
  %or.cond = select i1 %31, i1 %.not32, i1 false
  br i1 %or.cond, label %32, label %.loopexit

32:                                               ; preds = %28
  %33 = load ptr, ptr %19, align 8, !tbaa !65
  %34 = sext i32 %30 to i64
  %35 = getelementptr inbounds ptr, ptr %33, i64 %34
  %36 = load ptr, ptr %35, align 8, !tbaa !20
  %37 = load i32, ptr %20, align 8, !tbaa !59
  %38 = icmp sgt i32 %37, 0
  br i1 %38, label %.lr.ph, label %.loopexit

.lr.ph:                                           ; preds = %32
  %39 = getelementptr inbounds nuw i8, ptr %22, i64 40
  %wide.trip.count = zext nneg i32 %37 to i64
  br label %40

40:                                               ; preds = %.lr.ph, %process_sample.exit
  %indvars.iv = phi i64 [ 0, %.lr.ph ], [ %indvars.iv.next, %process_sample.exit ]
  %41 = getelementptr inbounds nuw double, ptr %36, i64 %indvars.iv
  %42 = load double, ptr %41, align 8, !tbaa !33
  br label %43

43:                                               ; preds = %43, %40
  %44 = phi i1 [ true, %40 ], [ false, %43 ]
  %indvars.iv.i = phi i64 [ 0, %40 ], [ 1, %43 ]
  %.089.i = phi double [ %42, %40 ], [ %96, %43 ]
  %45 = getelementptr inbounds nuw %struct.FoSection, ptr %39, i64 %indvars.iv.i
  %46 = getelementptr inbounds nuw i8, ptr %45, i64 40
  %47 = load double, ptr %46, align 8, !tbaa !66
  %48 = fmul nsz double %.089.i, %47
  %49 = getelementptr inbounds nuw i8, ptr %45, i64 48
  %50 = load double, ptr %49, align 8, !tbaa !68
  %51 = getelementptr inbounds nuw i8, ptr %45, i64 80
  %52 = load double, ptr %51, align 8, !tbaa !33
  %53 = getelementptr inbounds nuw i8, ptr %45, i64 112
  %54 = load double, ptr %53, align 8, !tbaa !33
  %55 = getelementptr inbounds nuw i8, ptr %45, i64 8
  %56 = load double, ptr %55, align 8, !tbaa !69
  %57 = fneg nsz double %56
  %58 = fmul nsz double %54, %57
  %59 = tail call nsz double @llvm.fmuladd.f64(double %50, double %52, double %58)
  %60 = fadd nsz double %48, %59
  %61 = getelementptr inbounds nuw i8, ptr %45, i64 56
  %62 = load double, ptr %61, align 8, !tbaa !70
  %63 = getelementptr inbounds nuw i8, ptr %45, i64 88
  %64 = load double, ptr %63, align 8, !tbaa !33
  %65 = getelementptr inbounds nuw i8, ptr %45, i64 120
  %66 = load double, ptr %65, align 8, !tbaa !33
  %67 = getelementptr inbounds nuw i8, ptr %45, i64 16
  %68 = load double, ptr %67, align 8, !tbaa !71
  %69 = fneg nsz double %68
  %70 = fmul nsz double %66, %69
  %71 = tail call nsz double @llvm.fmuladd.f64(double %62, double %64, double %70)
  %72 = fadd nsz double %60, %71
  %73 = getelementptr inbounds nuw i8, ptr %45, i64 64
  %74 = load double, ptr %73, align 8, !tbaa !72
  %75 = getelementptr inbounds nuw i8, ptr %45, i64 96
  %76 = load double, ptr %75, align 8, !tbaa !33
  %77 = getelementptr inbounds nuw i8, ptr %45, i64 128
  %78 = load double, ptr %77, align 8, !tbaa !33
  %79 = getelementptr inbounds nuw i8, ptr %45, i64 24
  %80 = load double, ptr %79, align 8, !tbaa !73
  %81 = fneg nsz double %80
  %82 = fmul nsz double %78, %81
  %83 = tail call nsz double @llvm.fmuladd.f64(double %74, double %76, double %82)
  %84 = fadd nsz double %72, %83
  %85 = getelementptr inbounds nuw i8, ptr %45, i64 72
  %86 = load double, ptr %85, align 8, !tbaa !74
  %87 = getelementptr inbounds nuw i8, ptr %45, i64 104
  %88 = load double, ptr %87, align 8, !tbaa !33
  %89 = getelementptr inbounds nuw i8, ptr %45, i64 136
  %90 = load double, ptr %89, align 8, !tbaa !33
  %91 = getelementptr inbounds nuw i8, ptr %45, i64 32
  %92 = load double, ptr %91, align 8, !tbaa !75
  %93 = fneg nsz double %92
  %94 = fmul nsz double %90, %93
  %95 = tail call nsz double @llvm.fmuladd.f64(double %86, double %88, double %94)
  %96 = fadd nsz double %84, %95
  store double %76, ptr %87, align 8, !tbaa !33
  store double %64, ptr %75, align 8, !tbaa !33
  store double %52, ptr %63, align 8, !tbaa !33
  store double %.089.i, ptr %51, align 8, !tbaa !33
  store double %78, ptr %89, align 8, !tbaa !33
  store double %66, ptr %77, align 8, !tbaa !33
  store double %54, ptr %65, align 8, !tbaa !33
  store double %96, ptr %53, align 8, !tbaa !33
  br i1 %44, label %43, label %process_sample.exit, !llvm.loop !76

process_sample.exit:                              ; preds = %43
  store double %96, ptr %41, align 8, !tbaa !33
  %indvars.iv.next = add nuw nsw i64 %indvars.iv, 1
  %exitcond.not = icmp eq i64 %indvars.iv.next, %wide.trip.count
  br i1 %exitcond.not, label %.loopexit, label %40, !llvm.loop !78

.loopexit:                                        ; preds = %process_sample.exit, %32, %28, %21, %26
  %indvars.iv.next38 = add nuw nsw i64 %indvars.iv37, 1
  %exitcond41.not = icmp eq i64 %indvars.iv.next38, %wide.trip.count40
  br i1 %exitcond41.not, label %._crit_edge, label %21, !llvm.loop !79
}